target datalayout = "e-m:e-p270:32:32-p271:32:32-p272:64:64-i64:64-i128:128-f80:128-n8:16:32:64-S128"
target triple = "x86_64-pc-linux-gnu"

%struct.lua_TValue = type { %union.Value, [1 x i32], i32 }
%union.Value = type { ptr }

; Function Attrs: mustprogress nounwind uwtable
define internal noundef i32 @_ZL13luauF_lrotateP9lua_StateP10lua_TValueS2_iS2_i(ptr noundef %0, ptr noundef %1, ptr noundef %2, i32 noundef %3, ptr noundef %4, i32 noundef %5) #0 {
  %7 = alloca i32, align 4
  %8 = alloca ptr, align 8
  %9 = alloca ptr, align 8
  %10 = alloca ptr, align 8
  %11 = alloca i32, align 4
  %12 = alloca ptr, align 8
  %13 = alloca i32, align 4
  %14 = alloca double, align 8
  %15 = alloca double, align 8
  %16 = alloca i32, align 4
  %17 = alloca i32, align 4
  %18 = alloca i32, align 4
  %19 = alloca ptr, align 8
  store ptr %0, ptr %8, align 8, !tbaa !4
  store ptr %1, ptr %9, align 8, !tbaa !9
  store ptr %2, ptr %10, align 8, !tbaa !9
  store i32 %3, ptr %11, align 4, !tbaa !11
  store ptr %4, ptr %12, align 8, !tbaa !9
  store i32 %5, ptr %13, align 4, !tbaa !11
  %20 = load i32, ptr %13, align 4, !tbaa !11
  %21 = icmp sge i32 %20, 2
  br i1 %21, label %22, label %64

22:                                               ; preds = %6
  %23 = load i32, ptr %11, align 4, !tbaa !11
  %24 = icmp sle i32 %23, 1
  br i1 %24, label %25, label %64

25:                                               ; preds = %22
  %26 = load ptr, ptr %10, align 8, !tbaa !9
  %27 = getelementptr inbounds nuw %struct.lua_TValue, ptr %26, i32 0, i32 2
  %28 = load i32, ptr %27, align 4, !tbaa !13
  %29 = icmp eq i32 %28, 3
  br i1 %29, label %30, label %64

30:                                               ; preds = %25
  %31 = load ptr, ptr %12, align 8, !tbaa !9
  %32 = getelementptr inbounds nuw %struct.lua_TValue, ptr %31, i32 0, i32 2
  %33 = load i32, ptr %32, align 4, !tbaa !13
  %34 = icmp eq i32 %33, 3
  br i1 %34, label %35, label %64

35:                                               ; preds = %30
  call void @llvm.lifetime.start.p0(i64 8, ptr %14) #17
  %36 = load ptr, ptr %10, align 8, !tbaa !9
  %37 = getelementptr inbounds nuw %struct.lua_TValue, ptr %36, i32 0, i32 0
  %38 = load double, ptr %37, align 8, !tbaa !15
  store double %38, ptr %14, align 8, !tbaa !16
  call void @llvm.lifetime.start.p0(i64 8, ptr %15) #17
  %39 = load ptr, ptr %12, align 8, !tbaa !9
  %40 = getelementptr inbounds nuw %struct.lua_TValue, ptr %39, i32 0, i32 0
  %41 = load double, ptr %40, align 8, !tbaa !15
  store double %41, ptr %15, align 8, !tbaa !16
  call void @llvm.lifetime.start.p0(i64 4, ptr %16) #17
  %42 = load double, ptr %14, align 8, !tbaa !16
  %43 = fptosi double %42 to i64
  %44 = trunc i64 %43 to i32
  store i32 %44, ptr %16, align 4, !tbaa !11
  call void @llvm.lifetime.start.p0(i64 4, ptr %17) #17
  %45 = load double, ptr %15, align 8, !tbaa !16
  %46 = fptosi double %45 to i32
  store i32 %46, ptr %17, align 4, !tbaa !11
  call void @llvm.lifetime.start.p0(i64 4, ptr %18) #17
  %47 = load i32, ptr %16, align 4, !tbaa !11
  %48 = load i32, ptr %17, align 4, !tbaa !11
  %49 = and i32 %48, 31
  %50 = shl i32 %47, %49
  %51 = load i32, ptr %16, align 4, !tbaa !11
  %52 = load i32, ptr %17, align 4, !tbaa !11
  %53 = sub nsw i32 32, %52
  %54 = and i32 %53, 31
  %55 = lshr i32 %51, %54
  %56 = or i32 %50, %55
  store i32 %56, ptr %18, align 4, !tbaa !11
  call void @llvm.lifetime.start.p0(i64 8, ptr %19) #17
  %57 = load ptr, ptr %9, align 8, !tbaa !9
  store ptr %57, ptr %19, align 8, !tbaa !9
  %58 = load i32, ptr %18, align 4, !tbaa !11
  %59 = uitofp i32 %58 to double
  %60 = load ptr, ptr %19, align 8, !tbaa !9
  %61 = getelementptr inbounds nuw %struct.lua_TValue, ptr %60, i32 0, i32 0
  store double %59, ptr %61, align 8, !tbaa !15
  %62 = load ptr, ptr %19, align 8, !tbaa !9
  %63 = getelementptr inbounds nuw %struct.lua_TValue, ptr %62, i32 0, i32 2
  store i32 3, ptr %63, align 4, !tbaa !13
  call void @llvm.lifetime.end.p0(i64 8, ptr %19) #17
  store i32 1, ptr %7, align 4
  call void @llvm.lifetime.end.p0(i64 4, ptr %18) #17
  call void @llvm.lifetime.end.p0(i64 4, ptr %17) #17
  call void @llvm.lifetime.end.p0(i64 4, ptr %16) #17
  call void @llvm.lifetime.end.p0(i64 8, ptr %15) #17
  call void @llvm.lifetime.end.p0(i64 8, ptr %14) #17
  br label %65

64:                                               ; preds = %30, %25, %22, %6
  store i32 -1, ptr %7, align 4
  br label %65

65:                                               ; preds = %64, %35
  %66 = load i32, ptr %7, align 4
  ret i32 %66
}