; Function Attrs: mustprogress nofree norecurse nosync nounwind willreturn memory(argmem: readwrite) uwtable
define internal noundef range(i32 -1, 2) i32 @_ZL13luauF_lrotateP9lua_StateP10lua_TValueS2_iS2_i(ptr readnone captures(none) %0, ptr noundef writeonly captures(none) %1, ptr noundef readonly captures(none) %2, i32 noundef %3, ptr noundef readonly captures(none) %4, i32 noundef %5) #1 {
  %7 = icmp sgt i32 %5, 1
  %8 = icmp slt i32 %3, 2
  %or.cond = and i1 %8, %7
  br i1 %or.cond, label %9, label %26

9:                                                ; preds = %6
  %10 = getelementptr inbounds nuw i8, ptr %2, i64 12
  %11 = load i32, ptr %10, align 4, !tbaa !4
  %12 = icmp eq i32 %11, 3
  br i1 %12, label %13, label %26

13:                                               ; preds = %9
  %14 = getelementptr inbounds nuw i8, ptr %4, i64 12
  %15 = load i32, ptr %14, align 4, !tbaa !4
  %16 = icmp eq i32 %15, 3
  br i1 %16, label %17, label %26

17:                                               ; preds = %13
  %18 = load double, ptr %2, align 8, !tbaa !9
  %19 = load double, ptr %4, align 8, !tbaa !9
  %20 = fptosi double %18 to i64
  %21 = trunc i64 %20 to i32
  %22 = fptosi double %19 to i32
  %23 = tail call i32 @llvm.fshl.i32(i32 %21, i32 %21, i32 %22)
  %24 = uitofp i32 %23 to double
  store double %24, ptr %1, align 8, !tbaa !9
  %25 = getelementptr inbounds nuw i8, ptr %1, i64 12
  store i32 3, ptr %25, align 4, !tbaa !4
  br label %26

26:                                               ; preds = %6, %9, %13, %17
  %.0 = phi i32 [ 1, %17 ], [ -1, %13 ], [ -1, %9 ], [ -1, %6 ]
  ret i32 %.0
}